; Function Attrs: nounwind uwtable
define internal void @HIDAPI_JoystickSetDevicePlayerIndex(i32 noundef %0, i32 noundef %1) #0 {
  tail call void @SDL_AssertJoysticksLocked() #9
  %.024.i = load ptr, ptr @SDL_HIDAPI_devices, align 8
  %.not25.i = icmp eq ptr %.024.i, null
  br i1 %.not25.i, label %HIDAPI_GetDeviceByIndex.exit.thread, label %.lr.ph.i

.lr.ph.i:                                         ; preds = %2, %18
  %.027.i = phi ptr [ %.0.i, %18 ], [ %.024.i, %2 ]
  %.01526.i = phi i32 [ %.1.i, %18 ], [ %0, %2 ]
  %3 = getelementptr inbounds nuw i8, ptr %.027.i, i64 160
  %4 = load ptr, ptr %3, align 8
  %.not18.i = icmp eq ptr %4, null
  br i1 %.not18.i, label %5, label %18

5:                                                ; preds = %.lr.ph.i
  %6 = getelementptr inbounds nuw i8, ptr %.027.i, i64 154
  %7 = load i8, ptr %6, align 2, !range !6, !noundef !7
  %8 = trunc nuw i8 %7 to i1
  br i1 %8, label %18, label %9

9:                                                ; preds = %5
  %10 = getelementptr inbounds nuw i8, ptr %.027.i, i64 104
  %11 = load ptr, ptr %10, align 8
  %.not19.i = icmp eq ptr %11, null
  br i1 %.not19.i, label %18, label %12

12:                                               ; preds = %9
  %13 = getelementptr inbounds nuw i8, ptr %.027.i, i64 140
  %14 = load i32, ptr %13, align 4
  %15 = icmp slt i32 %.01526.i, %14
  br i1 %15, label %20, label %16

16:                                               ; preds = %12
  %17 = sub nsw i32 %.01526.i, %14
  br label %18

18:                                               ; preds = %16, %9, %5, %.lr.ph.i
  %.1.i = phi i32 [ %.01526.i, %.lr.ph.i ], [ %.01526.i, %5 ], [ %17, %16 ], [ %.01526.i, %9 ]
  %19 = getelementptr inbounds nuw i8, ptr %.027.i, i64 184
  %.0.i = load ptr, ptr %19, align 8
  %.not.i = icmp eq ptr %.0.i, null
  br i1 %.not.i, label %HIDAPI_GetDeviceByIndex.exit.thread, label %.lr.ph.i, !llvm.loop !37

20:                                               ; preds = %12
  %21 = getelementptr inbounds nuw i8, ptr %.027.i, i64 144
  %22 = load ptr, ptr %21, align 8
  %23 = sext i32 %.01526.i to i64
  %24 = getelementptr inbounds i32, ptr %22, i64 %23
  %25 = load i32, ptr %24, align 4
  %26 = getelementptr inbounds nuw i8, ptr %11, i64 64
  %27 = load ptr, ptr %26, align 8
  tail call void %27(ptr noundef nonnull %.027.i, i32 noundef %25, i32 noundef %1) #9
  br label %HIDAPI_GetDeviceByIndex.exit.thread

HIDAPI_GetDeviceByIndex.exit.thread:              ; preds = %18, %2, %20
  ret void
}